; Function Attrs: mustprogress nofree norecurse nosync nounwind willreturn memory(readwrite, inaccessiblemem: none) uwtable
define void @_ZNK5faiss15IndexBinaryFlat11reconstructElPh(ptr nocapture noundef nonnull readonly align 8 dereferenceable(76) %0, i64 noundef %1, ptr nocapture noundef writeonly %2) unnamed_addr #4 align 2 {
  %4 = getelementptr inbounds i8, ptr %0, i64 32
  %5 = getelementptr inbounds i8, ptr %0, i64 12
  %6 = load i32, ptr %5, align 4
  %7 = sext i32 %6 to i64
  %8 = mul nsw i64 %7, %1
  %9 = load ptr, ptr %4, align 8
  %10 = getelementptr inbounds i8, ptr %9, i64 %8
  tail call void @llvm.memcpy.p0.p0.i64(ptr align 1 %2, ptr nonnull align 1 %10, i64 %7, i1 false)
  ret void
}